(lp0
ccopy_reg
_reconstructor
p1
(cecdsa.ellipticcurve
Point
p2
c__builtin__
object
p3
Ntp4
Rp5
(dp6
S'_Point__y'
p7
L2201706356284991364242471733212485549235191786805778950702447361864540521298L
sS'_Point__order'
p8
NsS'_Point__x'
p9
L30164005517050666469404457369764006062918324152882933944045541573739609272831L
sS'_Point__curve'
p10
g1
(cecdsa.ellipticcurve
CurveFp
p11
g3
Ntp12
Rp13
(dp14
S'_CurveFp__b'
p15
I7
sS'_CurveFp__a'
p16
I0
sS'_CurveFp__p'
p17
L115792089237316195423570985008687907853269984665640564039457584007908834671663L
sbsba.